; Function Attrs: nounwind uwtable
define ptr @l_String_reduceEq(ptr noundef %0, ptr noundef %1, ptr noundef %2, ptr noundef %3, ptr noundef %4, ptr noundef %5, ptr noundef %6, ptr noundef %7, ptr noundef %8) local_unnamed_addr #0 {
  %10 = load ptr, ptr @l_String_reduceEq___closed__2, align 8, !tbaa !9
  %11 = tail call zeroext i8 @l_Lean_Expr_isAppOfArity(ptr noundef %0, ptr noundef %10, ptr noundef nonnull inttoptr (i64 7 to ptr)) #4
  %12 = icmp eq i8 %11, 0
  br i1 %12, label %13, label %66

13:                                               ; preds = %9
  %14 = ptrtoint ptr %7 to i64
  %15 = and i64 %14, 1
  %.not = icmp eq i64 %15, 0
  br i1 %.not, label %16, label %lean_dec.exit28

16:                                               ; preds = %13
  %17 = load i32, ptr %7, align 4, !tbaa !4
  %18 = icmp sgt i32 %17, 1
  br i1 %18, label %19, label %21, !prof !11

19:                                               ; preds = %16
  %20 = add nsw i32 %17, -1
  store i32 %20, ptr %7, align 4, !tbaa !4
  br label %lean_dec.exit28

21:                                               ; preds = %16
  %.not.i = icmp eq i32 %17, 0
  br i1 %.not.i, label %lean_dec.exit28, label %22

22:                                               ; preds = %21
  tail call void @lean_dec_ref_cold(ptr noundef nonnull %7) #4
  br label %lean_dec.exit28

lean_dec.exit28:                                  ; preds = %22, %21, %19, %13
  %23 = ptrtoint ptr %6 to i64
  %24 = and i64 %23, 1
  %.not37 = icmp eq i64 %24, 0
  br i1 %.not37, label %25, label %lean_dec.exit27

25:                                               ; preds = %lean_dec.exit28
  %26 = load i32, ptr %6, align 4, !tbaa !4
  %27 = icmp sgt i32 %26, 1
  br i1 %27, label %28, label %30, !prof !11

28:                                               ; preds = %25
  %29 = add nsw i32 %26, -1
  store i32 %29, ptr %6, align 4, !tbaa !4
  br label %lean_dec.exit27

30:                                               ; preds = %25
  %.not.i29 = icmp eq i32 %26, 0
  br i1 %.not.i29, label %lean_dec.exit27, label %31

31:                                               ; preds = %30
  tail call void @lean_dec_ref_cold(ptr noundef nonnull %6) #4
  br label %lean_dec.exit27

lean_dec.exit27:                                  ; preds = %31, %30, %28, %lean_dec.exit28
  %32 = ptrtoint ptr %5 to i64
  %33 = and i64 %32, 1
  %.not38 = icmp eq i64 %33, 0
  br i1 %.not38, label %34, label %lean_dec.exit26

34:                                               ; preds = %lean_dec.exit27
  %35 = load i32, ptr %5, align 4, !tbaa !4
  %36 = icmp sgt i32 %35, 1
  br i1 %36, label %37, label %39, !prof !11

37:                                               ; preds = %34
  %38 = add nsw i32 %35, -1
  store i32 %38, ptr %5, align 4, !tbaa !4
  br label %lean_dec.exit26

39:                                               ; preds = %34
  %.not.i31 = icmp eq i32 %35, 0
  br i1 %.not.i31, label %lean_dec.exit26, label %40

40:                                               ; preds = %39
  tail call void @lean_dec_ref_cold(ptr noundef nonnull %5) #4
  br label %lean_dec.exit26

lean_dec.exit26:                                  ; preds = %40, %39, %37, %lean_dec.exit27
  %41 = ptrtoint ptr %4 to i64
  %42 = and i64 %41, 1
  %.not39 = icmp eq i64 %42, 0
  br i1 %.not39, label %43, label %lean_dec.exit25

43:                                               ; preds = %lean_dec.exit26
  %44 = load i32, ptr %4, align 4, !tbaa !4
  %45 = icmp sgt i32 %44, 1
  br i1 %45, label %46, label %48, !prof !11

46:                                               ; preds = %43
  %47 = add nsw i32 %44, -1
  store i32 %47, ptr %4, align 4, !tbaa !4
  br label %lean_dec.exit25

48:                                               ; preds = %43
  %.not.i33 = icmp eq i32 %44, 0
  br i1 %.not.i33, label %lean_dec.exit25, label %49

49:                                               ; preds = %48
  tail call void @lean_dec_ref_cold(ptr noundef nonnull %4) #4
  br label %lean_dec.exit25

lean_dec.exit25:                                  ; preds = %49, %48, %46, %lean_dec.exit26
  %50 = ptrtoint ptr %0 to i64
  %51 = and i64 %50, 1
  %.not40 = icmp eq i64 %51, 0
  br i1 %.not40, label %52, label %lean_dec.exit

52:                                               ; preds = %lean_dec.exit25
  %53 = load i32, ptr %0, align 4, !tbaa !4
  %54 = icmp sgt i32 %53, 1
  br i1 %54, label %55, label %57, !prof !11

55:                                               ; preds = %52
  %56 = add nsw i32 %53, -1
  store i32 %56, ptr %0, align 4, !tbaa !4
  br label %lean_dec.exit

57:                                               ; preds = %52
  %.not.i35 = icmp eq i32 %53, 0
  br i1 %.not.i35, label %lean_dec.exit, label %58

58:                                               ; preds = %57
  tail call void @lean_dec_ref_cold(ptr noundef nonnull %0) #4
  br label %lean_dec.exit

lean_dec.exit:                                    ; preds = %58, %57, %55, %lean_dec.exit25
  %59 = load ptr, ptr @l_String_reduceBinPred___lambda__1___closed__1, align 8, !tbaa !9
  tail call void @lean_inc_heartbeat() #4
  %60 = tail call noalias ptr @mi_malloc_small(i64 noundef 24) #4
  %61 = icmp eq ptr %60, null
  br i1 %61, label %62, label %lean_alloc_ctor.exit

62:                                               ; preds = %lean_dec.exit
  tail call void @lean_internal_panic_out_of_memory() #5
  unreachable

lean_alloc_ctor.exit:                             ; preds = %lean_dec.exit
  %63 = getelementptr inbounds nuw i8, ptr %60, i64 4
  store i32 1, ptr %60, align 4, !tbaa !4
  store i32 131096, ptr %63, align 4
  %64 = getelementptr inbounds nuw i8, ptr %60, i64 8
  store ptr %59, ptr %64, align 8, !tbaa !9
  %65 = getelementptr inbounds nuw i8, ptr %60, i64 16
  store ptr %8, ptr %65, align 8, !tbaa !9
  br label %68

66:                                               ; preds = %9
  %67 = tail call ptr @l_String_reduceEq___lambda__1(ptr noundef %0, ptr nonnull poison, ptr noundef %1, ptr noundef %2, ptr noundef %3, ptr noundef %4, ptr noundef %5, ptr noundef %6, ptr noundef %7, ptr noundef %8)
  br label %68

68:                                               ; preds = %66, %lean_alloc_ctor.exit
  %.0 = phi ptr [ %60, %lean_alloc_ctor.exit ], [ %67, %66 ]
  ret ptr %.0
}